target datalayout = "e-m:e-p270:32:32-p271:32:32-p272:64:64-i64:64-i128:128-f80:128-n8:16:32:64-S128"
target triple = "x86_64-pc-linux-gnu"

; Function Attrs: nounwind uwtable
define dso_local void @clean_ipv6_addr(i32 noundef %0, ptr noundef %1) #0 {
  %3 = alloca i32, align 4
  %4 = alloca ptr, align 8
  %5 = alloca ptr, align 8
  store i32 %0, ptr %3, align 4
  store ptr %1, ptr %4, align 8
  %6 = load i32, ptr %3, align 4
  %7 = icmp eq i32 %6, 10
  br i1 %7, label %8, label %16

8:                                                ; preds = %2
  call void @llvm.lifetime.start.p0(i64 8, ptr %5) #8
  %9 = load ptr, ptr %4, align 8
  %10 = call ptr @strchr(ptr noundef %9, i32 noundef 37) #9
  store ptr %10, ptr %5, align 8
  %11 = load ptr, ptr %5, align 8
  %12 = icmp ne ptr %11, null
  br i1 %12, label %13, label %15

13:                                               ; preds = %8
  %14 = load ptr, ptr %5, align 8
  store i8 0, ptr %14, align 1
  br label %15

15:                                               ; preds = %13, %8
  call void @llvm.lifetime.end.p0(i64 8, ptr %5) #8
  br label %16

16:                                               ; preds = %15, %2
  ret void
}