; Function Attrs: mustprogress nofree nounwind willreturn memory(write, argmem: readwrite, inaccessiblemem: none) uwtable
define dso_local void @clean_ipv6_addr(i32 noundef %0, ptr noundef %1) local_unnamed_addr #8 {
  %3 = icmp eq i32 %0, 10
  br i1 %3, label %4, label %7

4:                                                ; preds = %2
  %5 = tail call ptr @strchr(ptr noundef nonnull dereferenceable(1) %1, i32 noundef 37) #15
  %.not = icmp eq ptr %5, null
  br i1 %.not, label %7, label %6

6:                                                ; preds = %4
  store i8 0, ptr %5, align 1
  br label %7

7:                                                ; preds = %4, %6, %2
  ret void
}